(dp0
S'all'
p1
(lp2
S':p'
p3
aS'the'
p4
asS'code'
p5
(lp6
S'in'
p7
asS'stores'
p8
(lp9
S'that'
p10
asS'just'
p11
(lp12
S'like'
p13
aS'marakov'
p14
aS'felt'
p15
aS'gives'
p16
aS'a'
p17
aS'add'
p18
aS'what'
p19
asS'being'
p20
(lp21
S'goon'
p22
aS'a'
p23
asS'text'
p24
(lp25
S'string'
p26
asS'dependant'
p27
(lp28
S'on'
p29
asS'speedup'
p30
(lp31
S'at'
p32
asS'felt'
p33
(lp34
S'like'
p35
asS'installed'
p36
(lp37
S'tho'
p38
asS'disabled'
p39
(lp40
S'it'
p41
asS'timing'
p42
(lp43
S'when'
p44
asS'psyco'
p45
(lp46
S'installed'
p47
aS'is'
p48
asS'stops'
p49
(lp50
S'timing'
p51
asS'file'
p52
(lp53
S'too'
p54
aS'that'
p55
aS'where'
p56
asS'go'
p57
(lp58
S'fuck'
p59
aS'into'
p60
aS'test'
p61
asS'hell'
p62
(lp63
S'recreate'
p64
asS'configurable'
p65
(lp66
S'greeting'
p67
asS'bs12'
p68
(lp69
S'message'
p70
asS'its'
p71
(lp72
S'fine'
p73
aS'just'
p74
aS'calculated'
p75
aS'not'
p76
aS'really'
p77
aS'ridiculously'
p78
aS'now'
p79
aS'a'
p80
aS'missing'
p81
aS'for'
p82
aS'false'
p83
aS'on'
p84
asS'before'
p85
(lp86
S'that'
p87
asS'rp-heavy'
p88
(lp89
S'server'
p90
asS'announcement'
p91
(lp92
S'like'
p93
asS'now'
p94
(lp95
S'it'
p96
aS'running'
p97
aS'makie'
p98
aS'i'
p99
asS'nudge'
p100
(lp101
S'python'
p102
aS'is'
p103
asS'sourced'
p104
(lp105
S'under'
p106
asS'title'
p107
(lp108
S'of'
p109
asS'situations'
p110
(lp111
S'where'
p112
asS'fine-tune'
p113
(lp114
S'it'
p115
asS'enough'
p116
(lp117
S'to'
p118
asS'send'
p119
(lp120
S'it'
p121
aS'one'
p122
asS'should'
p123
(lp124
S'be'
p125
aS'learn'
p126
aS'we'
p127
asS'values'
p128
(lp129
S'dont'
p130
asS'to'
p131
(lp132
S'edit'
p133
aS'back'
p134
aS'know'
p135
aS'care'
p136
aS'be'
p137
aS'configure'
p138
aS'the'
p139
aS'null'
p140
aS'phone'
p141
aS'welcome'
p142
aS'reverse'
p143
aS'send'
p144
aS'reg'
p145
aS'point'
p146
aS'automatically'
p147
aS'work'
p148
aS'waste'
p149
aS'marshmallow'
p150
aS'queries'
p151
aS'+o'
p152
aS'disable'
p153
asS'jit'
p154
(lp155
S'compiler'
p156
asS'going'
p157
(lp158
S'to'
p159
asS'helps'
p160
(lp161
S'me'
p162
asS'messes'
p163
(lp164
S'it'
p165
asS'indeed'
p166
(lp167
S'it'
p168
asS'tg'
p169
(lp170
S'and'
p171
asS'has'
p172
(lp173
S'been'
p174
aS'my'
p175
asS'into'
p176
(lp177
S'#tgstation13'
p178
asS'ridiculously'
p179
(lp180
S'simple'
p181
asS'annoy'
p182
(lp183
S'downstream'
p184
asS'them'
p185
(lp186
S'out'
p187
asS'someone'
p188
(lp189
S'adminhelps'
p190
asS'sense'
p191
(lp192
S'i'
p193
asS'string'
p194
(lp195
S'called'
p196
asS'get'
p197
(lp198
S'ready'
p199
asS'python'
p200
(lp201
S'script'
p202
aS'so'
p203
aS'code'
p204
aS'scripts'
p205
aS'and'
p206
aS'but'
p207
aS'now'
p208
aS'released'
p209
aS'is'
p210
aS'enough'
p211
asS'goon'
p212
(lp213
S'tg'
p214
asS'showing'
p215
(lp216
S'up'
p217
asS'20ish'
p218
(lp219
S'line'
p220
asS'gonna'
p221
(lp222
S'go'
p223
asS'made'
p224
(lp225
S'doctors'
p226
asS'every'
p227
(lp228
S'loop'
p229
aS'time'
p230
asS'know'
p231
(lp232
S'the'
p233
aS'why'
p234
aS'that'
p235
asS'not'
p236
(lp237
S'just'
p238
aS'necessary'
p239
aS'to'
p240
aS'so'
p241
aS'need'
p242
aS'sure'
p243
aS'relaying'
p244
aS'very'
p245
aS'even'
p246
asS'2'
p247
(lp248
S'loop'
p249
asS'password'
p250
(lp251
S'var'
p252
asS'day'
p253
(lp254
S'so'
p255
asS'swapping'
p256
(lp257
S'to'
p258
asS'easily'
p259
(lp260
S'editable'
p261
asS'necessary'
p262
(lp263
S'at'
p264
asS'like'
p265
(lp266
S'being'
p267
aS'linking'
p268
aS'to'
p269
aS'how'
p270
aS'it'
p271
aS'skbzzzzzibi'
p272
asS'course'
p273
(lp274
S'that'
p275
asS'edit'
p276
(lp277
S'baystation'
p278
asS'fully'
p279
(lp280
S'open'
p281
asS'greeting'
p282
(lp283
S'message'
p284
asS'server'
p285
(lp286
S'basically'
p287
aS''
p288
asS'default'
p289
(lp290
S'config'
p291
asS'bad'
p292
(lp293
S'company'
p294
asS'channel'
p295
(lp296
S'or'
p297
asS'always'
p298
(lp299
S'makes'
p300
asS'went'
p301
(lp302
S'past'
p303
asS'quarxink'
p304
(lp305
S'its'
p306
asS'automatic'
p307
(lp308
S'announcement'
p309
asS'once'
p310
(lp311
S'per'
p312
asS'wrote'
p313
(lp314
S'most'
p315
asS'pain'
p316
(lp317
S'on'
p318
asS'system'
p319
(lp320
S'calls'
p321
asS'right'
p322
(lp323
S'brb'
p324
asS'decides'
p325
(lp326
S'not'
p327
asS'people'
p328
(lp329
S'say'
p330
aS'i'
p331
aS'he'
p332
asS'goddamn'
p333
(lp334
S'python'
p335
asS'back'
p336
(lp337
S'it'
p338
asS'used'
p339
(lp340
S'to'
p341
aS'for'
p342
asS'past'
p343
(lp344
S'too'
p345
asS'cost'
p346
(lp347
S'of'
p348
asS'learn'
p349
(lp350
S'python'
p351
asS'are'
p352
(lp353
S'lawyers'
p354
aS'actually'
p355
aS'configurable'
p356
aS'we'
p357
asS'celestialike'
p358
(lp359
S'of'
p360
asS'lawyers'
p361
(lp362
S'for'
p363
asS'time'
p364
(lp365
S'he'
p366
asS'out'
p367
(lp368
S'switch'
p369
aS'slowdowns'
p370
aS'that'
p371
aS'why'
p372
aS'nudge'
p373
asS'even'
p374
(lp375
S'an'
p376
asS'what'
p377
(lp378
S'the'
p379
aS'is'
p380
aS'these'
p381
aS'was'
p382
aS'license'
p383
aS'about'
p384
aS'i'
p385
asS'said'
p386
(lp387
S'in'
p388
asS'sayt'
p389
(lp390
S'hat'
p391
asS'for'
p392
(lp393
S'that'
p394
aS'every'
p395
aS'the'
p396
aS'quarx'
p397
aS'cc_nanotrasen'
p398
aS'homoerotic'
p399
aS'situations'
p400
aS'good'
p401
asS'#tgstation13'
p402
(lp403
S'and'
p404
asS'per'
p405
(lp406
S'name'
p407
asS'whole'
p408
(lp409
S'config'
p410
asS'state'
p411
(lp412
S'the'
p413
asS'does'
p414
(lp415
S'the'
p416
aS'it'
p417
asS'goes'
p418
(lp419
S'on'
p420
asS'readme'
p421
(lp422
S'too'
p423
asS'new'
p424
(lp425
S'bot'
p426
aS'person'
p427
asS'learned'
p428
(lp429
S'python'
p430
asS'irc'
p431
(lp432
S'bot'
p433
asS'reg'
p434
(lp435
S'it'
p436
asS'blow'
p437
(lp438
S'borgs'
p439
asS'shut'
p440
(lp441
S'down'
p442
asS'after'
p443
(lp444
S'an'
p445
aS'a'
p446
asS'ill'
p447
(lp448
S'switch'
p449
asS'says'
p450
(lp451
S'someones'
p452
asS'queries'
p453
(lp454
S'again'
p455
asS'technocracy'
p456
(lp457
S'and'
p458
asS'we'
p459
(lp460
S'go'
p461
aS'do'
p462
aS'totally'
p463
aS'going'
p464
aS'expect'
p465
aS'just'
p466
aS'dont'
p467
aS'have'
p468
asS'put'
p469
(lp470
S'all'
p471
asS'from'
p472
(lp473
S'the'
p474
asS'data11lower'
p475
(lp476
S'=='
p477
asS'configuration'
p478
(lp479
S'for'
p480
asS'wait'
p481
(lp482
S'what'
p483
asS'on'
p484
(lp485
S'my'
p486
aS'the'
p487
aS'a'
p488
aS'connect'
p489
aS'svn'
p490
aS'one'
p491
aS'/'
p492
asS'about'
p493
(lp494
S'system'
p495
asS'ok'
p496
(lp497
S'thats'
p498
asS'reverse'
p499
(lp500
S'engineer'
p501
asS'license'
p502
(lp503
S'is'
p504
asS'oh'
p505
(lp506
S'okay'
p507
aS'ok'
p508
aS'i'
p509
aS'wait'
p510
asS'starts'
p511
(lp512
S'timing'
p513
asS'could'
p514
(lp515
S'learn'
p516
asS'larger'
p517
(lp518
S'ram'
p519
asS'bot'
p520
(lp521
S'is'
p522
aS'have'
p523
aS'shut'
p524
aS'uses'
p525
asS'running'
p526
(lp527
S'it'
p528
aS'the'
p529
aS'on'
p530
asS'times'
p531
(lp532
S'on'
p533
aS'reported'
p534
aS'went'
p535
asS'where'
p536
(lp537
S'he'
p538
asS'heck'
p539
(lp540
S':d'
p541
asS'idk'
p542
(lp543
S'magic'
p544
asS'receives'
p545
(lp546
S'a'
p547
asS'bots'
p548
(lp549
S'showing'
p550
asS'slightly'
p551
(lp552
S'larger'
p553
asS'or'
p554
(lp555
S'know'
p556
aS'what'
p557
aS'work'
p558
aS'should'
p559
aS'data11lower'
p560
asS'automatically'
p561
(lp562
S'state'
p563
asS'thats'
p564
(lp565
S'not'
p566
aS'the'
p567
aS'kind'
p568
asS'ugh'
p569
(lp570
S'fuck'
p571
asS'major'
p572
(lp573
S'ss13'
p574
aS'three'
p575
asS'py'
p576
(lp577
S'file'
p578
asS'soss'
p579
(lp580
S'server'
p581
asS'dont'
p582
(lp583
S'need'
p584
aS'have'
p585
aS'send'
p586
aS'want'
p587
aS'speak'
p588
asS'hostmask'
p589
(lp590
S'combination'
p591
asS'point'
p592
(lp593
S'out'
p594
aS'has'
p595
asS'simple'
p596
(lp597
S'to'
p598
asS'miura'
p599
(lp600
S'doesnt'
p601
asS'variables'
p602
(lp603
S'in'
p604
asS'recreate'
p605
(lp606
S'it'
p607
asS'welcome'
p608
(lp609
S'to'
p610
asS'linking'
p611
(lp612
S'them'
p613
asS'down'
p614
(lp615
S'when'
p616
asS'why'
p617
(lp618
S'its'
p619
aS'it'
p620
aS'is'
p621
asS'doesnt'
p622
(lp623
S'play'
p624
aS'call'
p625
asS'marakov'
p626
(lp627
S'loops'
p628
aS'helps'
p629
asS'laugh'
p630
(lp631
S'when'
p632
asS'pony'
p633
(lp634
S'asshole'
p635
asS'message'
p636
(lp637
S'has'
p638
aS'should'
p639
asS'open'
p640
(lp641
S'sourced'
p642
aS'source'
p643
asS'brb'
p644
(lp645
S'swapping'
p646
asS'speak'
p647
(lp648
S'python'
p649
asS'pastebin'
p650
(lp651
S'the'
p652
asS'line'
p653
(lp654
S'core'
p655
aS'on'
p656
asS'three'
p657
(lp658
S'being'
p659
asS'yay'
p660
(lp661
S'it'
p662
asS'meatbag'
p663
(lp664
S'when'
p665
asS'would'
p666
(lp667
S'be'
p668
aS'expect'
p669
asS'script'
p670
(lp671
S'that'
p672
asS'illegal'
p673
(lp674
S'ban'
p675
asS'there'
p676
(lp677
S'are'
p678
aS'we'
p679
asS'add'
p680
(lp681
S'that'
p682
aS'a'
p683
asS'been'
p684
(lp685
S'processed'
p686
asS'name'
p687
(lp688
S'/'
p689
aS'when'
p690
asS'ai'
p691
(lp692
S'malf'
p693
asS'marshmallow'
p694
(lp695
S'pony'
p696
asS'of'
p697
(lp698
S'the'
p699
aS'ss13'
p700
aS'tgstation13'
p701
aS'a'
p702
aS'course'
p703
aS'it'
p704
aS'soss'
p705
aS'annoying'
p706
aS'any'
p707
aS'me'
p708
aS'cap'
p709
aS'technocracy'
p710
asS'call'
p711
(lp712
S'me'
p713
asS'too'
p714
(lp715
S':'
p716
aS'fast'
p717
asS'basic'
p718
(lp719
S'configuration'
p720
asS'var'
p721
(lp722
S'and'
p723
asS'calc'
p724
(lp725
S'times'
p726
asS'was'
p727
(lp728
S'going'
p729
aS'it'
p730
aS'that'
p731
aS'not'
p732
aS'intended'
p733
asS'tell'
p734
(lp735
S'people'
p736
asS'500'
p737
(lp738
S'chance'
p739
asS'gives'
p740
(lp741
S'a'
p742
asS'sort'
p743
(lp744
S'of'
p745
asS'svn'
p746
(lp747
S'size'
p748
asS'only'
p749
(lp750
S'does'
p751
aS'2'
p752
asS'10-30%'
p753
(lp754
S'speedup'
p755
asS'knows'
p756
(lp757
S'about'
p758
asS'webpage'
p759
(lp760
S'title'
p761
asS'that'
p762
(lp763
S'makes'
p764
aS'would'
p765
aS'the'
p766
aS'needs'
p767
aS'to'
p768
aS'at'
p769
aS'for'
p770
aS'was'
p771
aS'data'
p772
asS'company'
p773
(lp774
S'2'
p775
asS'under'
p776
(lp777
S'cc-by-sa'
p778
asS'editable'
p779
(lp780
S'config'
p781
asS'but'
p782
(lp783
S'of'
p784
asS'idea'
p785
(lp786
S'what'
p787
asS'released'
p788
(lp789
S'under'
p790
asS'part'
p791
(lp792
S'before'
p793
asS'link'
p794
(lp795
S'said'
p796
aS'to'
p797
asS'basically'
p798
(lp799
S'it'
p800
asS'doctors'
p801
(lp802
S'useless'
p803
asS'=='
p804
(lp805
S'channel'
p806
aS'channel1::'
p807
asS'be'
p808
(lp809
S'an'
p810
aS'called'
p811
aS'a'
p812
aS'in'
p813
aS'running'
p814
aS'used'
p815
asS'editing'
p816
(lp817
S'goddamn'
p818
asS'with'
p819
(lp820
S'the'
p821
aS'easily'
p822
aS'adminhelps'
p823
aS'my'
p824
aS'a'
p825
asS'those'
p826
(lp827
S'are'
p828
asS'he'
p829
(lp830
S'put'
p831
aS'disabled'
p832
aS'is'
p833
aS'keeps'
p834
aS'knows'
p835
aS'stores'
p836
aS'notices'
p837
aS'only'
p838
aS'doesnt'
p839
aS'receives'
p840
aS'says'
p841
aS'messes'
p842
asS'me'
p843
(lp844
S'figure'
p845
aS'laugh'
p846
aS'to'
p847
aS'meatbag'
p848
asS'also'
p849
(lp850
S'i'
p851
aS'we'
p852
aS'now'
p853
asS'kind'
p854
(lp855
S'of'
p856
asS'main'
p857
(lp858
S'bot'
p859
asS'/'
p860
(lp861
S'hostmask'
p862
aS'off'
p863
asS'full'
p864
(lp865
S'of'
p866
asS'these'
p867
(lp868
S'are'
p869
asS'makie'
p870
(lp871
S'it'
p872
asS'sleepers'
p873
(lp874
S'made'
p875
asS'up'
p876
(lp877
S'elsewhere'
p878
aS'me'
p879
aS'a'
p880
asS'will'
p881
(lp882
S'annoy'
p883
asS'computer'
p884
(lp885
S'explodd'
p886
asS'limit'
p887
(lp888
S'on'
p889
asS'can'
p890
(lp891
S'fine-tune'
p892
aS'add'
p893
aS'i'
p894
aS'we'
p895
asS'how'
p896
(lp897
S'its'
p898
aS'he'
p899
asS'were'
p900
(lp901
S'the'
p902
asS'malf'
p903
(lp904
S'blow'
p905
asS'baystation'
p906
(lp907
S'12'
p908
asS'other'
p909
(lp910
S'loop'
p911
asS'my'
p912
(lp913
S'end'
p914
aS'computer'
p915
aS'code'
p916
asS'called'
p917
(lp918
S'as'
p919
aS'when'
p920
asS'loop'
p921
(lp922
S'times'
p923
asS'expect'
p924
(lp925
S'it'
p926
asS'and'
p927
(lp928
S'bs12'
p929
aS'stops'
p930
aS'i'
p931
aS'do'
p932
aS'to'
p933
aS'make'
p934
aS'he'
p935
aS'preferably'
p936
aS'thats'
p937
aS'sayt'
p938
aS'fascism'
p939
asS'dedicated'
p940
(lp941
S'solely'
p942
asS'changed'
p943
(lp944
S'it'
p945
asS'sees'
p946
(lp947
S'a'
p948
asS'relaying'
p949
(lp950
S'adminhelps'
p951
asS'figure'
p952
(lp953
S'out'
p954
asS'do'
p955
(lp956
S'not'
p957
aS'it'
p958
aS'seem'
p959
asS'ran'
p960
(lp961
S'the'
p962
asS'ah'
p963
(lp964
S'running'
p965
aS'ok'
p966
asS'is'
p967
(lp968
S'baystation'
p969
aS'a'
p970
aS'that'
p971
aS'it'
p972
aS'coded'
p973
aS'python'
p974
aS'open'
p975
aS'dependant'
p976
aS'so'
p977
aS'apparently'
p978
asS'ram'
p979
(lp980
S'footprint'
p981
asS'am'
p982
(lp983
S'the'
p984
asS'it'
p985
(lp986
S'up'
p987
aS'starts'
p988
aS'receives'
p989
aS'just'
p990
aS'expires'
p991
aS'works'
p992
aS'always'
p993
aS'decides'
p994
aS'on'
p995
aS'here'
p996
aS'used'
p997
aS'to'
p998
aS'those'
p999
aS'sees'
p1000
aS'does'
p1001
aS'myself'
p1002
aS'a'
p1003
aS'okay'
p1004
aS'was'
p1005
aS'go'
p1006
aS'if'
p1007
aS'once'
p1008
aS'is'
p1009
aS'for'
p1010
asS'an'
p1011
(lp1012
S'hour'
p1013
aS'illegal'
p1014
aS'automatic'
p1015
aS'error'
p1016
asS'ready'
p1017
(lp1018
S'for'
p1019
asS'say'
p1020
(lp1021
S'sleepers'
p1022
aS'ai'
p1023
aS'that*'
p1024
aS'stop'
p1025
asS'good'
p1026
(lp1027
S':p'
p1028
asS'im'
p1029
(lp1030
S'not'
p1031
aS'sorry'
p1032
aS'lazy'
p1033
asS'at'
p1034
(lp1035
S'all'
p1036
aS'the'
p1037
aS'no'
p1038
asS'have'
p1039
(lp1040
S'no'
p1041
aS'psyco'
p1042
aS'the'
p1043
aS'a'
p1044
asS'in'
p1045
(lp1046
S'python'
p1047
aS'a'
p1048
aS'the'
p1049
aS'100'
p1050
asS'need'
p1051
(lp1052
S'to'
p1053
aS'six'
p1054
asS'politics'
p1055
(lp1056
S'of'
p1057
asS'seem'
p1058
(lp1059
S'familiar'
p1060
asS'work'
p1061
(lp1062
S'with'
p1063
asS'apparently'
p1064
(lp1065
S'homophobic'
p1066
aS'i'
p1067
asS'any'
p1068
(lp1069
S'link'
p1070
asS'as'
p1071
(lp1072
S'well'
p1073
aS'variables'
p1074
asS'sci-fi'
p1075
(lp1076
S'with'
p1077
asS'preferably'
p1078
(lp1079
S'python'
p1080
asS'really'
p1081
(lp1082
S'simple'
p1083
aS'now'
p1084
asS'needs'
p1085
(lp1086
S'to'
p1087
aS'a'
p1088
asS'null'
p1089
(lp1090
S'them'
p1091
asS'because'
p1092
(lp1093
S'we'
p1094
asS'want'
p1095
(lp1096
S'to'
p1097
asS'no'
p1098
(lp1099
S'pain'
p1100
aS'idea'
p1101
aS'point'
p1102
aS'the'
p1103
asS'solely'
p1104
(lp1105
S'to'
p1106
asS'nah'
p1107
(lp1108
S'its'
p1109
aS'ill'
p1110
asS'dunno'
p1111
(lp1112
S'is'
p1113
asS'when'
p1114
(lp1115
S'it'
p1116
aS'the'
p1117
aS'people'
p1118
aS'i'
p1119
aS'can'
p1120
aS'someone'
p1121
aS'its'
p1122
asS'same'
p1123
(lp1124
S'file'
p1125
asS'id'
p1126
(lp1127
S'like'
p1128
asS'note'
p1129
(lp1130
S'how'
p1131
asS'figuring'
p1132
(lp1133
S'out'
p1134
asS'bah'
p1135
(lp1136
S'apparently'
p1137
asS'coded'
p1138
(lp1139
S'in'
p1140
asS'take'
p1141
(lp1142
S'it'
p1143
asS'hop'
p1144
(lp1145
S'to'
p1146
asS'familiar'
p1147
(lp1148
S'message'
p1149
asS'test'
p1150
(lp1151
S'server'
p1152
aS'bots'
p1153
aS'bad'
p1154
asS'asshole'
p1155
(lp1156
g288
asS'if'
p1157
(lp1158
S'it'
p1159
aS'its'
p1160
aS'data11lower'
p1161
aS'he'
p1162
asS'config'
p1163
(lp1164
S'file'
p1165
aS'values'
p1166
asS'homophobic'
p1167
(lp1168
S'as'
p1169
asS'dose'
p1170
(lp1171
S'of'
p1172
asS'play'
p1173
(lp1174
S'ss13'
p1175
asS'sure'
p1176
(lp1177
S'the'
p1178
aS'if'
p1179
asS'okay'
p1180
(lp1181
S'desu'
p1182
aS'cool'
p1183
aS'cc'
p1184
asS'intended'
p1185
(lp1186
S'to'
p1187
asS'one'
p1188
(lp1189
S'of'
p1190
aS'line'
p1191
aS'in'
p1192
asS'neat'
p1193
(lp1194
S'is'
p1195
asS'adminhelps'
p1196
(lp1197
S'from'
p1198
aS'with'
p1199
asS'expires'
p1200
(lp1201
S'after'
p1202
asS'chance'
p1203
(lp1204
S'every'
p1205
asS'most'
p1206
(lp1207
S'of'
p1208
asS'fascism'
p1209
(lp1210
g288
asS'disable'
p1211
(lp1212
S'it'
p1213
asS'connected'
p1214
(lp1215
S'businessman'
p1216
asS'never'
p1217
(lp1218
S'learned'
p1219
asS'scripts'
p1220
(lp1221
S'will'
p1222
asS'along'
p1223
(lp1224
S'with'
p1225
asS'waste'
p1226
(lp1227
S'space'
p1228
asS'ss13'
p1229
(lp1230
S'servers'
p1231
asS'cap'
p1232
(lp1233
S'troopers'
p1234
asS'totally'
p1235
(lp1236
S'need'
p1237
asS'six'
p1238
(lp1239
S'test'
p1240
asS'a'
p1241
(lp1242
S'businessman'
p1243
aS'message'
p1244
aS'jit'
p1245
aS'10-30%'
p1246
aS'slightly'
p1247
aS'day'
p1248
aS'test'
p1249
aS'config'
p1250
aS'20ish'
p1251
aS'bs12'
p1252
aS'text'
p1253
aS'new'
p1254
aS'password'
p1255
aS'vhost'
p1256
aS'configurable'
p1257
aS'link'
p1258
aS'limit'
p1259
aS'file'
p1260
aS'dose'
p1261
aS'500'
p1262
aS'bit'
p1263
asS'ofc'
p1264
(lp1265
S'i'
p1266
asS'off'
p1267
(lp1268
S'of'
p1269
asS'calls'
p1270
(lp1271
S'external'
p1272
asS'i'
p1273
(lp1274
S'need'
p1275
aS'can'
p1276
aS'dont'
p1277
aS'am'
p1278
aS'guess'
p1279
aS'see'
p1280
aS'have'
p1281
aS'just'
p1282
aS'dunno'
p1283
aS'wrote'
p1284
aS'know'
p1285
aS'was'
p1286
aS'changed'
p1287
aS'take'
p1288
aS'could'
p1289
aS'never'
p1290
aS'should'
p1291
aS'say'
p1292
aS'tell'
p1293
aS'code'
p1294
aS'would'
p1295
aS'like'
p1296
aS'disabled'
p1297
asS'makes'
p1298
(lp1299
S'sense'
p1300
aS'me'
p1301
asS'calculated'
p1302
(lp1303
S'for'
p1304
asS'afk'
p1305
(lp1306
S'vidya'
p1307
asS'well'
p1308
(lp1309
S'connected'
p1310
asS'data'
p1311
(lp1312
S'in'
p1313
asS'homoerotic'
p1314
(lp1315
S'sci-fi'
p1316
asS'switch'
p1317
(lp1318
S'after'
p1319
aS'goes'
p1320
asS'so'
p1321
(lp1322
S'i'
p1323
aS'uh'
p1324
aS':p'
p1325
aS'bad'
p1326
aS'sly'
p1327
asS'someones'
p1328
(lp1329
S'name'
p1330
asS'keeps'
p1331
(lp1332
S'all'
p1333
asS'very'
p1334
(lp1335
S'celestialike'
p1336
asS'businessman'
p1337
(lp1338
S'of'
p1339
ag288
asS'the'
p1340
(lp1341
S'heck'
p1342
aS'major'
p1343
aS'well'
p1344
aS'politics'
p1345
aS'rp-heavy'
p1346
aS'marakov'
p1347
aS'law'
p1348
aS'message'
p1349
aS'cost'
p1350
aS'new'
p1351
aS'nudge'
p1352
aS'bot'
p1353
aS'python'
p1354
aS'basic'
p1355
aS'whole'
p1356
aS'configuration'
p1357
aS'irc'
p1358
aS'readme'
p1359
aS'default'
p1360
aS'conspiracy'
p1361
aS'config'
p1362
aS'webpage'
p1363
aS'channel'
p1364
aS'server'
p1365
aS'download'
p1366
aS'main'
p1367
aS'dmb'
p1368
aS'part'
p1369
aS'people'
p1370
aS'same'
p1371
aS'hell'
p1372
aS'other'
p1373
aS'switch'
p1374
asS'12'
p1375
(lp1376
S'out'
p1377
aS'anyway'
p1378
asS'core'
p1379
(lp1380
S'py'
p1381
asS'make'
p1382
(lp1383
S'sure'
p1384
aS'the'
p1385
asS'turns'
p1386
(lp1387
S'out'
p1388
asS'external'
p1389
(lp1390
S'apps'
p1391
as.